; ModuleID = 'bench/z3/original/lbool.ll'
source_filename = "bench/z3/original/lbool.ll"
target datalayout = "e-m:e-p270:32:32-p271:32:32-p272:64:64-i64:64-i128:128-f80:128-n8:16:32:64-S128"
target triple = "x86_64-pc-linux-gnu"

%"class.std::ios_base::Init" = type { i8 }

@_ZStL8__ioinit = internal global %"class.std::ios_base::Init" zeroinitializer, align 1
@__dso_handle = external hidden global i8
@.str = private unnamed_addr constant [8 x i8] c"l_false\00", align 1
@.str.1 = private unnamed_addr constant [7 x i8] c"l_true\00", align 1
@.str.2 = private unnamed_addr constant [8 x i8] c"l_undef\00", align 1
@.str.3 = private unnamed_addr constant [14 x i8] c"unsatisfiable\00", align 1
@.str.4 = private unnamed_addr constant [12 x i8] c"satisfiable\00", align 1
@.str.5 = private unnamed_addr constant [8 x i8] c"unknown\00", align 1
@llvm.global_ctors = appending global [1 x { i32, ptr, ptr }] [{ i32, ptr, ptr } { i32 65535, ptr @_GLOBAL__sub_I_lbool.cpp, ptr null }]

declare void @_ZNSt8ios_base4InitC1Ev(ptr noundef nonnull align 1 dereferenceable(1)) unnamed_addr #0

; Function Attrs: nounwind
declare void @_ZNSt8ios_base4InitD1Ev(ptr noundef nonnull align 1 dereferenceable(1)) unnamed_addr #1

; Function Attrs: nofree nounwind
declare i32 @__cxa_atexit(ptr, ptr, ptr) local_unnamed_addr #2

; Function Attrs: mustprogress uwtable
define hidden noundef nonnull align 8 dereferenceable(8) ptr @_ZlsRSo5lbool(ptr noundef nonnull returned align 8 dereferenceable(8) %0, i32 noundef %1) local_unnamed_addr #3 {
  switch i32 %1, label %7 [
    i32 -1, label %3
    i32 1, label %5
  ]

3:                                                ; preds = %2
  %4 = tail call noundef nonnull align 8 dereferenceable(8) ptr @_ZSt16__ostream_insertIcSt11char_traitsIcEERSt13basic_ostreamIT_T0_ES6_PKS3_l(ptr noundef nonnull align 8 dereferenceable(8) %0, ptr noundef nonnull @.str, i64 noundef 7)
  br label %9

5:                                                ; preds = %2
  %6 = tail call noundef nonnull align 8 dereferenceable(8) ptr @_ZSt16__ostream_insertIcSt11char_traitsIcEERSt13basic_ostreamIT_T0_ES6_PKS3_l(ptr noundef nonnull align 8 dereferenceable(8) %0, ptr noundef nonnull @.str.1, i64 noundef 6)
  br label %9

7:                                                ; preds = %2
  %8 = tail call noundef nonnull align 8 dereferenceable(8) ptr @_ZSt16__ostream_insertIcSt11char_traitsIcEERSt13basic_ostreamIT_T0_ES6_PKS3_l(ptr noundef nonnull align 8 dereferenceable(8) %0, ptr noundef nonnull @.str.2, i64 noundef 7)
  br label %9

9:                                                ; preds = %7, %5, %3
  ret ptr %0
}

; Function Attrs: mustprogress nofree norecurse nosync nounwind willreturn memory(none) uwtable
define hidden noundef nonnull ptr @_Z10to_sat_str5lbool(i32 noundef %0) local_unnamed_addr #4 {
  %switch.selectcmp = icmp eq i32 %0, 1
  %switch.select = select i1 %switch.selectcmp, ptr @.str.4, ptr @.str.5
  %switch.selectcmp1 = icmp eq i32 %0, -1
  %switch.select2 = select i1 %switch.selectcmp1, ptr @.str.3, ptr %switch.select
  ret ptr %switch.select2
}

declare noundef nonnull align 8 dereferenceable(8) ptr @_ZSt16__ostream_insertIcSt11char_traitsIcEERSt13basic_ostreamIT_T0_ES6_PKS3_l(ptr noundef nonnull align 8 dereferenceable(8), ptr noundef, i64 noundef) local_unnamed_addr #0

; Function Attrs: uwtable
define internal void @_GLOBAL__sub_I_lbool.cpp() #5 section ".text.startup" {
  tail call void @_ZNSt8ios_base4InitC1Ev(ptr noundef nonnull align 1 dereferenceable(1) @_ZStL8__ioinit)
  %1 = tail call i32 @__cxa_atexit(ptr nonnull @_ZNSt8ios_base4InitD1Ev, ptr nonnull @_ZStL8__ioinit, ptr nonnull @__dso_handle) #6
  ret void
}


!llvm.linker.options = !{}
!llvm.module.flags = !{!0, !1, !2}

!0 = !{i32 1, !"wchar_size", i32 4}
!1 = !{i32 8, !"PIC Level", i32 2}
!2 = !{i32 7, !"uwtable", i32 2}
